target datalayout = "e-m:e-p270:32:32-p271:32:32-p272:64:64-i64:64-i128:128-f80:128-n8:16:32:64-S128"
target triple = "x86_64-pc-linux-gnu"

%union.pthread_mutex_t = type { %struct.__pthread_mutex_s }
%struct.__pthread_mutex_s = type { i32, i32, i32, i32, i32, i16, i16, %struct.__pthread_internal_list }
%struct.__pthread_internal_list = type { ptr, ptr }
%struct.slurm_conf_t = type { i64, ptr, i16, ptr, ptr, ptr, ptr, ptr, i16, ptr, ptr, ptr, ptr, ptr, ptr, ptr, i16, ptr, ptr, ptr, ptr, i16, ptr, ptr, ptr, i64, ptr, ptr, ptr, ptr, i16, ptr, ptr, i16, i32, ptr, i32, ptr, i32, i32, ptr, ptr, i64, i64, ptr, i16, i16, ptr, i32, i32, ptr, i32, ptr, i32, i16, i16, i16, ptr, i16, i16, ptr, ptr, i32, i16, i16, ptr, i32, i16, ptr, ptr, ptr, ptr, i16, ptr, ptr, ptr, ptr, i32, ptr, ptr, ptr, ptr, i16, i16, ptr, i32, i32, i32, i16, i16, ptr, ptr, i16, ptr, ptr, i32, i32, i32, i32, i32, i64, i32, i32, i16, ptr, ptr, i32, ptr, ptr, ptr, i16, i32, ptr, ptr, i16, ptr, ptr, i32, i16, ptr, ptr, ptr, ptr, i32, i32, i16, i16, i32, ptr, i16, ptr, i32, i32, i32, i32, i32, i32, ptr, i16, ptr, ptr, i32, i16, ptr, i32, i16, i16, ptr, ptr, ptr, i16, ptr, ptr, ptr, ptr, i16, i16, ptr, i16, ptr, i16, ptr, i16, ptr, i16, ptr, ptr, ptr, ptr, i16, ptr, ptr, ptr, i32, ptr, i32, ptr, ptr, i16, ptr, ptr, i32, i16, ptr, ptr, i16, i16, ptr, i16, ptr, ptr, ptr, i32, ptr, i16, i16, ptr, ptr, ptr, ptr, ptr, ptr, ptr, ptr, i16, i32, i16, ptr, ptr, ptr, ptr, i32, ptr, ptr, ptr, i16, ptr, ptr, ptr, i16, ptr, i16, ptr, i16, i16, ptr }
%struct.node_features_ops = type { ptr, ptr, ptr, ptr, ptr, ptr, ptr, ptr, ptr, ptr, ptr, ptr, ptr, ptr, ptr, ptr, ptr }

@.str = private unnamed_addr constant [14 x i8] c"node_features\00", align 1
@g_context_lock = internal global %union.pthread_mutex_t zeroinitializer, align 8
@.str.1 = private unnamed_addr constant [29 x i8] c"%s: pthread_mutex_lock(): %m\00", align 1
@__func__.node_features_g_init = private unnamed_addr constant [21 x i8] c"node_features_g_init\00", align 1
@g_context_cnt = internal global i32 -1, align 4
@slurm_conf = external global %struct.slurm_conf_t, align 8
@node_features_plugin_list = internal global ptr null, align 8
@.str.2 = private unnamed_addr constant [2 x i8] c",\00", align 1
@ops = internal global ptr null, align 8
@.str.3 = private unnamed_addr constant [16 x i8] c"node_features.c\00", align 1
@g_context = internal global ptr null, align 8
@.str.4 = private unnamed_addr constant [15 x i8] c"node_features/\00", align 1
@.str.5 = private unnamed_addr constant [17 x i8] c"node_features/%s\00", align 1
@syms = internal global [17 x ptr] [ptr @.str.9, ptr @.str.10, ptr @.str.11, ptr @.str.12, ptr @.str.13, ptr @.str.14, ptr @.str.15, ptr @.str.16, ptr @.str.17, ptr @.str.18, ptr @.str.19, ptr @.str.20, ptr @.str.21, ptr @.str.22, ptr @.str.23, ptr @.str.24, ptr @.str.25], align 16
@.str.6 = private unnamed_addr constant [32 x i8] c"cannot create %s context for %s\00", align 1
@.str.7 = private unnamed_addr constant [31 x i8] c"%s: pthread_mutex_unlock(): %m\00", align 1

; Function Attrs: nounwind uwtable
define dso_local i32 @node_features_g_init() #0 {
  %1 = alloca i32, align 4
  %2 = alloca ptr, align 8
  %3 = alloca ptr, align 8
  %4 = alloca ptr, align 8
  %5 = alloca ptr, align 8
  %6 = alloca i32, align 4
  %7 = alloca i32, align 4
  call void @llvm.lifetime.start.p0(i64 4, ptr %1) #7
  store i32 0, ptr %1, align 4
  call void @llvm.lifetime.start.p0(i64 8, ptr %2) #7
  store ptr null, ptr %2, align 8
  call void @llvm.lifetime.start.p0(i64 8, ptr %3) #7
  call void @llvm.lifetime.start.p0(i64 8, ptr %4) #7
  store ptr @.str, ptr %4, align 8
  call void @llvm.lifetime.start.p0(i64 8, ptr %5) #7
  br label %8

8:                                                ; preds = %0
  call void @llvm.lifetime.start.p0(i64 4, ptr %6) #7
  %9 = call i32 @pthread_mutex_lock(ptr noundef @g_context_lock) #7
  store i32 %9, ptr %6, align 4
  %10 = load i32, ptr %6, align 4
  %11 = icmp ne i32 %10, 0
  br i1 %11, label %12, label %15

12:                                               ; preds = %8
  %13 = load i32, ptr %6, align 4
  %14 = call ptr @__errno_location() #8
  store i32 %13, ptr %14, align 4
  call void (ptr, ...) @fatal_abort(ptr noundef @.str.1, ptr noundef @__func__.node_features_g_init) #9
  unreachable

15:                                               ; preds = %8
  call void @llvm.lifetime.end.p0(i64 4, ptr %6) #7
  br label %16

16:                                               ; preds = %15
  br label %17

17:                                               ; preds = %16
  %18 = load i32, ptr @g_context_cnt, align 4
  %19 = icmp sge i32 %18, 0
  br i1 %19, label %20, label %21

20:                                               ; preds = %17
  br label %84

21:                                               ; preds = %17
  %22 = load ptr, ptr getelementptr inbounds nuw (%struct.slurm_conf_t, ptr @slurm_conf, i32 0, i32 113), align 8
  %23 = call ptr @xstrdup(ptr noundef %22)
  store ptr %23, ptr @node_features_plugin_list, align 8
  store i32 0, ptr @g_context_cnt, align 4
  %24 = load ptr, ptr @node_features_plugin_list, align 8
  %25 = icmp eq ptr %24, null
  br i1 %25, label %32, label %26

26:                                               ; preds = %21
  %27 = load ptr, ptr @node_features_plugin_list, align 8
  %28 = getelementptr inbounds i8, ptr %27, i64 0
  %29 = load i8, ptr %28, align 1
  %30 = sext i8 %29 to i32
  %31 = icmp eq i32 %30, 0
  br i1 %31, label %32, label %33

32:                                               ; preds = %26, %21
  br label %84

33:                                               ; preds = %26
  %34 = load ptr, ptr @node_features_plugin_list, align 8
  store ptr %34, ptr %3, align 8
  br label %35

35:                                               ; preds = %80, %33
  %36 = load ptr, ptr %3, align 8
  %37 = call ptr @strtok_r(ptr noundef %36, ptr noundef @.str.2, ptr noundef %2) #7
  store ptr %37, ptr %5, align 8
  %38 = icmp ne ptr %37, null
  br i1 %38, label %39, label %83

39:                                               ; preds = %35
  %40 = load i32, ptr @g_context_cnt, align 4
  %41 = add nsw i32 %40, 1
  %42 = sext i32 %41 to i64
  %43 = mul i64 136, %42
  %44 = call ptr @slurm_xrecalloc(ptr noundef @ops, i64 noundef 1, i64 noundef %43, i1 noundef zeroext true, i1 noundef zeroext false, ptr noundef @.str.3, i32 noundef 126, ptr noundef @__func__.node_features_g_init)
  %45 = load i32, ptr @g_context_cnt, align 4
  %46 = add nsw i32 %45, 1
  %47 = sext i32 %46 to i64
  %48 = mul i64 8, %47
  %49 = call ptr @slurm_xrecalloc(ptr noundef @g_context, i64 noundef 1, i64 noundef %48, i1 noundef zeroext true, i1 noundef zeroext false, ptr noundef @.str.3, i32 noundef 128, ptr noundef @__func__.node_features_g_init)
  %50 = load ptr, ptr %5, align 8
  %51 = call i32 @xstrncmp(ptr noundef %50, ptr noundef @.str.4, i64 noundef 14)
  %52 = icmp eq i32 %51, 0
  br i1 %52, label %53, label %56

53:                                               ; preds = %39
  %54 = load ptr, ptr %5, align 8
  %55 = getelementptr inbounds i8, ptr %54, i64 14
  store ptr %55, ptr %5, align 8
  br label %56

56:                                               ; preds = %53, %39
  %57 = load ptr, ptr %5, align 8
  %58 = call ptr (ptr, ...) @xstrdup_printf(ptr noundef @.str.5, ptr noundef %57)
  store ptr %58, ptr %5, align 8
  %59 = load ptr, ptr %4, align 8
  %60 = load ptr, ptr %5, align 8
  %61 = load ptr, ptr @ops, align 8
  %62 = load i32, ptr @g_context_cnt, align 4
  %63 = sext i32 %62 to i64
  %64 = getelementptr inbounds %struct.node_features_ops, ptr %61, i64 %63
  %65 = call ptr @plugin_context_create(ptr noundef %59, ptr noundef %60, ptr noundef %64, ptr noundef @syms, i64 noundef 136)
  %66 = load ptr, ptr @g_context, align 8
  %67 = load i32, ptr @g_context_cnt, align 4
  %68 = sext i32 %67 to i64
  %69 = getelementptr inbounds ptr, ptr %66, i64 %68
  store ptr %65, ptr %69, align 8
  %70 = load ptr, ptr @g_context, align 8
  %71 = load i32, ptr @g_context_cnt, align 4
  %72 = sext i32 %71 to i64
  %73 = getelementptr inbounds ptr, ptr %70, i64 %72
  %74 = load ptr, ptr %73, align 8
  %75 = icmp ne ptr %74, null
  br i1 %75, label %80, label %76

76:                                               ; preds = %56
  %77 = load ptr, ptr %4, align 8
  %78 = load ptr, ptr %5, align 8
  %79 = call i32 (ptr, ...) @error(ptr noundef @.str.6, ptr noundef %77, ptr noundef %78)
  store i32 -1, ptr %1, align 4
  call void @slurm_xfree(ptr noundef %5)
  br label %83

80:                                               ; preds = %56
  call void @slurm_xfree(ptr noundef %5)
  %81 = load i32, ptr @g_context_cnt, align 4
  %82 = add nsw i32 %81, 1
  store i32 %82, ptr @g_context_cnt, align 4
  store ptr null, ptr %3, align 8
  br label %35, !llvm.loop !8

83:                                               ; preds = %76, %35
  br label %84

84:                                               ; preds = %83, %32, %20
  br label %85

85:                                               ; preds = %84
  call void @llvm.lifetime.start.p0(i64 4, ptr %7) #7
  %86 = call i32 @pthread_mutex_unlock(ptr noundef @g_context_lock) #7
  store i32 %86, ptr %7, align 4
  %87 = load i32, ptr %7, align 4
  %88 = icmp ne i32 %87, 0
  br i1 %88, label %89, label %92

89:                                               ; preds = %85
  %90 = load i32, ptr %7, align 4
  %91 = call ptr @__errno_location() #8
  store i32 %90, ptr %91, align 4
  call void (ptr, ...) @fatal_abort(ptr noundef @.str.7, ptr noundef @__func__.node_features_g_init) #9
  unreachable

92:                                               ; preds = %85
  call void @llvm.lifetime.end.p0(i64 4, ptr %7) #7
  br label %93

93:                                               ; preds = %92
  br label %94

94:                                               ; preds = %93
  %95 = load i32, ptr %1, align 4
  %96 = icmp ne i32 %95, 0
  br i1 %96, label %97, label %99

97:                                               ; preds = %94
  %98 = call i32 @node_features_g_fini()
  br label %99

99:                                               ; preds = %97, %94
  %100 = load i32, ptr %1, align 4
  call void @llvm.lifetime.end.p0(i64 8, ptr %5) #7
  call void @llvm.lifetime.end.p0(i64 8, ptr %4) #7
  call void @llvm.lifetime.end.p0(i64 8, ptr %3) #7
  call void @llvm.lifetime.end.p0(i64 8, ptr %2) #7
  call void @llvm.lifetime.end.p0(i64 4, ptr %1) #7
  ret i32 %100
}