; Function Attrs: nounwind uwtable
define dso_local range(i32 -1, 1) i32 @node_features_g_init() local_unnamed_addr #0 {
  %1 = alloca ptr, align 8
  %2 = alloca ptr, align 8
  call void @llvm.lifetime.start.p0(i64 8, ptr nonnull %1) #9
  store ptr null, ptr %1, align 8
  call void @llvm.lifetime.start.p0(i64 8, ptr nonnull %2) #9
  %3 = tail call i32 @pthread_mutex_lock(ptr noundef nonnull @g_context_lock) #9
  %.not = icmp eq i32 %3, 0
  br i1 %.not, label %6, label %4

4:                                                ; preds = %0
  %5 = tail call ptr @__errno_location() #10
  store i32 %3, ptr %5, align 4
  tail call void (ptr, ...) @fatal_abort(ptr noundef nonnull @.str.1, ptr noundef nonnull @__func__.node_features_g_init) #11
  unreachable

6:                                                ; preds = %0
  %7 = load i32, ptr @g_context_cnt, align 4
  %8 = icmp sgt i32 %7, -1
  br i1 %8, label %.loopexit, label %9

9:                                                ; preds = %6
  %10 = load ptr, ptr getelementptr inbounds nuw (i8, ptr @slurm_conf, i64 760), align 8
  %11 = tail call ptr @xstrdup(ptr noundef %10) #9
  store ptr %11, ptr @node_features_plugin_list, align 8
  store i32 0, ptr @g_context_cnt, align 4
  %12 = icmp eq ptr %11, null
  br i1 %12, label %.loopexit, label %13

13:                                               ; preds = %9
  %14 = load i8, ptr %11, align 1
  %15 = icmp eq i8 %14, 0
  br i1 %15, label %.loopexit, label %.preheader

.preheader:                                       ; preds = %13
  %16 = call ptr @strtok_r(ptr noundef nonnull %11, ptr noundef nonnull @.str.2, ptr noundef nonnull %1) #9
  store ptr %16, ptr %2, align 8
  %.not1226 = icmp eq ptr %16, null
  br i1 %.not1226, label %.loopexit, label %.lr.ph

.lr.ph:                                           ; preds = %.preheader, %47
  %17 = load i32, ptr @g_context_cnt, align 4
  %18 = add nsw i32 %17, 1
  %19 = sext i32 %18 to i64
  %20 = mul nsw i64 %19, 136
  %21 = call ptr @slurm_xrecalloc(ptr noundef nonnull @ops, i64 noundef 1, i64 noundef %20, i1 noundef zeroext true, i1 noundef zeroext false, ptr noundef nonnull @.str.3, i32 noundef 126, ptr noundef nonnull @__func__.node_features_g_init) #9
  %22 = load i32, ptr @g_context_cnt, align 4
  %23 = add nsw i32 %22, 1
  %24 = sext i32 %23 to i64
  %25 = shl nsw i64 %24, 3
  %26 = call ptr @slurm_xrecalloc(ptr noundef nonnull @g_context, i64 noundef 1, i64 noundef %25, i1 noundef zeroext true, i1 noundef zeroext false, ptr noundef nonnull @.str.3, i32 noundef 128, ptr noundef nonnull @__func__.node_features_g_init) #9
  %27 = load ptr, ptr %2, align 8
  %28 = call i32 @xstrncmp(ptr noundef %27, ptr noundef nonnull @.str.4, i64 noundef 14) #9
  %29 = icmp eq i32 %28, 0
  %.pre = load ptr, ptr %2, align 8
  br i1 %29, label %30, label %32

30:                                               ; preds = %.lr.ph
  %31 = getelementptr inbounds nuw i8, ptr %.pre, i64 14
  store ptr %31, ptr %2, align 8
  br label %32

32:                                               ; preds = %30, %.lr.ph
  %33 = phi ptr [ %31, %30 ], [ %.pre, %.lr.ph ]
  %34 = call ptr (ptr, ...) @xstrdup_printf(ptr noundef nonnull @.str.5, ptr noundef %33) #9
  store ptr %34, ptr %2, align 8
  %35 = load ptr, ptr @ops, align 8
  %36 = load i32, ptr @g_context_cnt, align 4
  %37 = sext i32 %36 to i64
  %38 = getelementptr inbounds %struct.node_features_ops, ptr %35, i64 %37
  %39 = call ptr @plugin_context_create(ptr noundef nonnull @.str, ptr noundef %34, ptr noundef %38, ptr noundef nonnull @syms, i64 noundef 136) #9
  %40 = load ptr, ptr @g_context, align 8
  %41 = load i32, ptr @g_context_cnt, align 4
  %42 = sext i32 %41 to i64
  %43 = getelementptr inbounds ptr, ptr %40, i64 %42
  store ptr %39, ptr %43, align 8
  %44 = load ptr, ptr @g_context, align 8
  %45 = getelementptr inbounds ptr, ptr %44, i64 %42
  %46 = load ptr, ptr %45, align 8
  %.not13 = icmp eq ptr %46, null
  br i1 %.not13, label %.thread, label %47

47:                                               ; preds = %32
  call void @slurm_xfree(ptr noundef nonnull %2) #9
  %48 = load i32, ptr @g_context_cnt, align 4
  %49 = add nsw i32 %48, 1
  store i32 %49, ptr @g_context_cnt, align 4
  %50 = call ptr @strtok_r(ptr noundef null, ptr noundef nonnull @.str.2, ptr noundef nonnull %1) #9
  store ptr %50, ptr %2, align 8
  %.not12 = icmp eq ptr %50, null
  br i1 %.not12, label %.loopexit, label %.lr.ph, !llvm.loop !8

.loopexit:                                        ; preds = %47, %.preheader, %6, %13, %9
  %51 = call i32 @pthread_mutex_unlock(ptr noundef nonnull @g_context_lock) #9
  %.not14 = icmp eq i32 %51, 0
  br i1 %.not14, label %60, label %55

.thread:                                          ; preds = %32
  %52 = load ptr, ptr %2, align 8
  %53 = call i32 (ptr, ...) @error(ptr noundef nonnull @.str.6, ptr noundef nonnull @.str, ptr noundef %52) #9
  call void @slurm_xfree(ptr noundef nonnull %2) #9
  %54 = call i32 @pthread_mutex_unlock(ptr noundef nonnull @g_context_lock) #9
  %.not1418 = icmp eq i32 %54, 0
  br i1 %.not1418, label %58, label %55

55:                                               ; preds = %.thread, %.loopexit
  %56 = phi i32 [ %54, %.thread ], [ %51, %.loopexit ]
  %57 = tail call ptr @__errno_location() #10
  store i32 %56, ptr %57, align 4
  call void (ptr, ...) @fatal_abort(ptr noundef nonnull @.str.7, ptr noundef nonnull @__func__.node_features_g_init) #11
  unreachable

58:                                               ; preds = %.thread
  %59 = call i32 @node_features_g_fini()
  br label %60

60:                                               ; preds = %.loopexit, %58
  %.02025 = phi i32 [ -1, %58 ], [ 0, %.loopexit ]
  call void @llvm.lifetime.end.p0(i64 8, ptr nonnull %2) #9
  call void @llvm.lifetime.end.p0(i64 8, ptr nonnull %1) #9
  ret i32 %.02025
}